target datalayout = "e-m:e-p270:32:32-p271:32:32-p272:64:64-i64:64-i128:128-f80:128-n8:16:32:64-S128"
target triple = "x86_64-pc-linux-gnu"

%"class.icu_77::(anonymous namespace)::MutableCodePointTrie" = type { ptr, i32, i32, ptr, i32, i32, i32, i32, i32, i32, i32, i32, ptr, [69632 x i8] }

; Function Attrs: mustprogress uwtable
define internal noundef zeroext i1 @_ZN6icu_7712_GLOBAL__N_120MutableCodePointTrie15ensureHighStartEi(ptr noundef nonnull align 8 dereferenceable(69696) %0, i32 noundef %1) #0 align 2 {
  %3 = alloca i1, align 1
  %4 = alloca ptr, align 8
  %5 = alloca i32, align 4
  %6 = alloca i32, align 4
  %7 = alloca i32, align 4
  %8 = alloca ptr, align 8
  %9 = alloca i32, align 4
  store ptr %0, ptr %4, align 8, !tbaa !11
  store i32 %1, ptr %5, align 4, !tbaa !3
  %10 = load ptr, ptr %4, align 8
  %11 = load i32, ptr %5, align 4, !tbaa !3
  %12 = getelementptr inbounds nuw %"class.icu_77::(anonymous namespace)::MutableCodePointTrie", ptr %10, i32 0, i32 10
  %13 = load i32, ptr %12, align 8, !tbaa !26
  %14 = icmp sge i32 %11, %13
  br i1 %14, label %15, label %75

15:                                               ; preds = %2
  %16 = load i32, ptr %5, align 4, !tbaa !3
  %17 = add nsw i32 %16, 512
  %18 = and i32 %17, -512
  store i32 %18, ptr %5, align 4, !tbaa !3
  call void @llvm.lifetime.start.p0(i64 4, ptr %6) #11
  %19 = getelementptr inbounds nuw %"class.icu_77::(anonymous namespace)::MutableCodePointTrie", ptr %10, i32 0, i32 10
  %20 = load i32, ptr %19, align 8, !tbaa !26
  %21 = ashr i32 %20, 4
  store i32 %21, ptr %6, align 4, !tbaa !3
  call void @llvm.lifetime.start.p0(i64 4, ptr %7) #11
  %22 = load i32, ptr %5, align 4, !tbaa !3
  %23 = ashr i32 %22, 4
  store i32 %23, ptr %7, align 4, !tbaa !3
  %24 = load i32, ptr %7, align 4, !tbaa !3
  %25 = getelementptr inbounds nuw %"class.icu_77::(anonymous namespace)::MutableCodePointTrie", ptr %10, i32 0, i32 1
  %26 = load i32, ptr %25, align 8, !tbaa !17
  %27 = icmp sgt i32 %24, %26
  br i1 %27, label %28, label %51

28:                                               ; preds = %15
  call void @llvm.lifetime.start.p0(i64 8, ptr %8) #11
  %29 = call noalias ptr @uprv_malloc_77(i64 noundef 278528) #12
  store ptr %29, ptr %8, align 8, !tbaa !52
  %30 = load ptr, ptr %8, align 8, !tbaa !52
  %31 = icmp eq ptr %30, null
  br i1 %31, label %32, label %33

32:                                               ; preds = %28
  store i1 false, ptr %3, align 1
  store i32 1, ptr %9, align 4
  br label %48

33:                                               ; preds = %28
  br label %34

34:                                               ; preds = %33
  %35 = load ptr, ptr %8, align 8, !tbaa !52
  %36 = getelementptr inbounds nuw %"class.icu_77::(anonymous namespace)::MutableCodePointTrie", ptr %10, i32 0, i32 0
  %37 = load ptr, ptr %36, align 8, !tbaa !13
  %38 = load i32, ptr %6, align 4, !tbaa !3
  %39 = mul nsw i32 %38, 4
  %40 = sext i32 %39 to i64
  call void @llvm.memcpy.p0.p0.i64(ptr align 4 %35, ptr align 4 %37, i64 %40, i1 false)
  br label %41

41:                                               ; preds = %34
  br label %42

42:                                               ; preds = %41
  %43 = getelementptr inbounds nuw %"class.icu_77::(anonymous namespace)::MutableCodePointTrie", ptr %10, i32 0, i32 0
  %44 = load ptr, ptr %43, align 8, !tbaa !13
  call void @uprv_free_77(ptr noundef %44)
  %45 = load ptr, ptr %8, align 8, !tbaa !52
  %46 = getelementptr inbounds nuw %"class.icu_77::(anonymous namespace)::MutableCodePointTrie", ptr %10, i32 0, i32 0
  store ptr %45, ptr %46, align 8, !tbaa !13
  %47 = getelementptr inbounds nuw %"class.icu_77::(anonymous namespace)::MutableCodePointTrie", ptr %10, i32 0, i32 1
  store i32 69632, ptr %47, align 8, !tbaa !17
  store i32 0, ptr %9, align 4
  br label %48

48:                                               ; preds = %42, %32
  call void @llvm.lifetime.end.p0(i64 8, ptr %8) #11
  %49 = load i32, ptr %9, align 4
  switch i32 %49, label %72 [
    i32 0, label %50
  ]

50:                                               ; preds = %48
  br label %51

51:                                               ; preds = %50, %15
  br label %52

52:                                               ; preds = %64, %51
  %53 = getelementptr inbounds nuw %"class.icu_77::(anonymous namespace)::MutableCodePointTrie", ptr %10, i32 0, i32 13
  %54 = load i32, ptr %6, align 4, !tbaa !3
  %55 = sext i32 %54 to i64
  %56 = getelementptr inbounds [69632 x i8], ptr %53, i64 0, i64 %55
  store i8 0, ptr %56, align 1, !tbaa !46
  %57 = getelementptr inbounds nuw %"class.icu_77::(anonymous namespace)::MutableCodePointTrie", ptr %10, i32 0, i32 8
  %58 = load i32, ptr %57, align 8, !tbaa !24
  %59 = getelementptr inbounds nuw %"class.icu_77::(anonymous namespace)::MutableCodePointTrie", ptr %10, i32 0, i32 0
  %60 = load ptr, ptr %59, align 8, !tbaa !13
  %61 = load i32, ptr %6, align 4, !tbaa !3
  %62 = sext i32 %61 to i64
  %63 = getelementptr inbounds i32, ptr %60, i64 %62
  store i32 %58, ptr %63, align 4, !tbaa !3
  br label %64

64:                                               ; preds = %52
  %65 = load i32, ptr %6, align 4, !tbaa !3
  %66 = add nsw i32 %65, 1
  store i32 %66, ptr %6, align 4, !tbaa !3
  %67 = load i32, ptr %7, align 4, !tbaa !3
  %68 = icmp slt i32 %66, %67
  br i1 %68, label %52, label %69, !llvm.loop !79

69:                                               ; preds = %64
  %70 = load i32, ptr %5, align 4, !tbaa !3
  %71 = getelementptr inbounds nuw %"class.icu_77::(anonymous namespace)::MutableCodePointTrie", ptr %10, i32 0, i32 10
  store i32 %70, ptr %71, align 8, !tbaa !26
  store i32 0, ptr %9, align 4
  br label %72

72:                                               ; preds = %69, %48
  call void @llvm.lifetime.end.p0(i64 4, ptr %7) #11
  call void @llvm.lifetime.end.p0(i64 4, ptr %6) #11
  %73 = load i32, ptr %9, align 4
  switch i32 %73, label %78 [
    i32 0, label %74
    i32 1, label %76
  ]

74:                                               ; preds = %72
  br label %75

75:                                               ; preds = %74, %2
  store i1 true, ptr %3, align 1
  br label %76

76:                                               ; preds = %75, %72
  %77 = load i1, ptr %3, align 1
  ret i1 %77

78:                                               ; preds = %72
  unreachable
}

; Function Attrs: inlinehint mustprogress nounwind uwtable
define internal noundef signext i8 @_ZL9U_FAILURE10UErrorCode(i32 noundef %0) #1 {
  %2 = alloca i32, align 4
  store i32 %0, ptr %2, align 4, !tbaa !9
  %3 = load i32, ptr %2, align 4, !tbaa !9
  %4 = icmp sgt i32 %3, 0
  %5 = zext i1 %4 to i8
  ret i8 %5
}

; Function Attrs: mustprogress uwtable
define internal void @_ZN6icu_7712_GLOBAL__N_120MutableCodePointTrie3setEijR10UErrorCode(ptr noundef nonnull align 8 dereferenceable(69696) %0, i32 noundef %1, i32 noundef %2, ptr noundef nonnull align 4 dereferenceable(4) %3) #0 align 2 {
  %5 = alloca ptr, align 8
  %6 = alloca i32, align 4
  %7 = alloca i32, align 4
  %8 = alloca ptr, align 8
  %9 = alloca i32, align 4
  %10 = alloca i32, align 4
  store ptr %0, ptr %5, align 8, !tbaa !11
  store i32 %1, ptr %6, align 4, !tbaa !3
  store i32 %2, ptr %7, align 4, !tbaa !3
  store ptr %3, ptr %8, align 8, !tbaa !7
  %11 = load ptr, ptr %5, align 8
  %12 = load ptr, ptr %8, align 8, !tbaa !7
  %13 = load i32, ptr %12, align 4, !tbaa !9
  %14 = call noundef signext i8 @_ZL9U_FAILURE10UErrorCode(i32 noundef %13)
  %15 = icmp ne i8 %14, 0
  br i1 %15, label %16, label %17

16:                                               ; preds = %4
  br label %44

17:                                               ; preds = %4
  %18 = load i32, ptr %6, align 4, !tbaa !3
  %19 = icmp ugt i32 %18, 1114111
  br i1 %19, label %20, label %22

20:                                               ; preds = %17
  %21 = load ptr, ptr %8, align 8, !tbaa !7
  store i32 1, ptr %21, align 4, !tbaa !9
  br label %44

22:                                               ; preds = %17
  call void @llvm.lifetime.start.p0(i64 4, ptr %9) #11
  %23 = load i32, ptr %6, align 4, !tbaa !3
  %24 = call noundef zeroext i1 @_ZN6icu_7712_GLOBAL__N_120MutableCodePointTrie15ensureHighStartEi(ptr noundef nonnull align 8 dereferenceable(69696) %11, i32 noundef %23)
  br i1 %24, label %25, label %30

25:                                               ; preds = %22
  %26 = load i32, ptr %6, align 4, !tbaa !3
  %27 = ashr i32 %26, 4
  %28 = call noundef i32 @_ZN6icu_7712_GLOBAL__N_120MutableCodePointTrie12getDataBlockEi(ptr noundef nonnull align 8 dereferenceable(69696) %11, i32 noundef %27)
  store i32 %28, ptr %9, align 4, !tbaa !3
  %29 = icmp slt i32 %28, 0
  br i1 %29, label %30, label %32

30:                                               ; preds = %25, %22
  %31 = load ptr, ptr %8, align 8, !tbaa !7
  store i32 7, ptr %31, align 4, !tbaa !9
  store i32 1, ptr %10, align 4
  br label %42

32:                                               ; preds = %25
  %33 = load i32, ptr %7, align 4, !tbaa !3
  %34 = getelementptr inbounds nuw %"class.icu_77::(anonymous namespace)::MutableCodePointTrie", ptr %11, i32 0, i32 3
  %35 = load ptr, ptr %34, align 8, !tbaa !19
  %36 = load i32, ptr %9, align 4, !tbaa !3
  %37 = load i32, ptr %6, align 4, !tbaa !3
  %38 = and i32 %37, 15
  %39 = add nsw i32 %36, %38
  %40 = sext i32 %39 to i64
  %41 = getelementptr inbounds i32, ptr %35, i64 %40
  store i32 %33, ptr %41, align 4, !tbaa !3
  store i32 0, ptr %10, align 4
  br label %42

42:                                               ; preds = %32, %30
  call void @llvm.lifetime.end.p0(i64 4, ptr %9) #11
  %43 = load i32, ptr %10, align 4
  switch i32 %43, label %45 [
    i32 0, label %44
    i32 1, label %44
  ]

44:                                               ; preds = %16, %20, %42, %42
  ret void

45:                                               ; preds = %42
  unreachable
}