; Function Attrs: mustprogress uwtable
define internal fastcc void @_ZN6icu_7712_GLOBAL__N_120MutableCodePointTrie3setEijR10UErrorCode(ptr noundef nonnull align 8 captures(none) dereferenceable(69696) %0, i32 noundef %1, i32 noundef %2, ptr noundef nonnull align 4 captures(none) dereferenceable(4) %3) unnamed_addr #0 align 2 {
  %5 = load i32, ptr %3, align 4, !tbaa !3
  %6 = icmp slt i32 %5, 1
  br i1 %6, label %7, label %49

7:                                                ; preds = %4
  %8 = icmp ugt i32 %1, 1114111
  br i1 %8, label %9, label %10

9:                                                ; preds = %7
  store i32 1, ptr %3, align 4, !tbaa !3
  br label %49

10:                                               ; preds = %7
  %11 = getelementptr inbounds nuw i8, ptr %0, i64 48
  %12 = load i32, ptr %11, align 8, !tbaa !19
  %.not.i = icmp slt i32 %1, %12
  br i1 %.not.i, label %38, label %13

13:                                               ; preds = %10
  %14 = add nuw nsw i32 %1, 512
  %15 = and i32 %14, 4193792
  %16 = ashr i32 %12, 4
  %17 = lshr exact i32 %15, 4
  %18 = getelementptr inbounds nuw i8, ptr %0, i64 8
  %19 = load i32, ptr %18, align 8, !tbaa !13
  %20 = icmp sgt i32 %17, %19
  br i1 %20, label %21, label %27

21:                                               ; preds = %13
  %22 = tail call noalias dereferenceable_or_null(278528) ptr @uprv_malloc_77(i64 noundef 278528) #14
  %.not22.i = icmp eq ptr %22, null
  br i1 %.not22.i, label %_ZN6icu_7712_GLOBAL__N_120MutableCodePointTrie15ensureHighStartEi.exit, label %23

23:                                               ; preds = %21
  %24 = load ptr, ptr %0, align 8, !tbaa !7
  %25 = shl nsw i32 %16, 2
  %26 = sext i32 %25 to i64
  tail call void @llvm.memcpy.p0.p0.i64(ptr nonnull align 4 %22, ptr align 4 %24, i64 %26, i1 false)
  tail call void @uprv_free_77(ptr noundef %24)
  store ptr %22, ptr %0, align 8, !tbaa !7
  store i32 69632, ptr %18, align 8, !tbaa !13
  br label %27

27:                                               ; preds = %23, %13
  %28 = getelementptr inbounds nuw i8, ptr %0, i64 64
  %29 = getelementptr inbounds nuw i8, ptr %0, i64 40
  %30 = sext i32 %16 to i64
  %31 = zext nneg i32 %17 to i64
  br label %32

32:                                               ; preds = %32, %27
  %indvars.iv.i = phi i64 [ %indvars.iv.next.i, %32 ], [ %30, %27 ]
  %33 = getelementptr inbounds [69632 x i8], ptr %28, i64 0, i64 %indvars.iv.i
  store i8 0, ptr %33, align 1, !tbaa !31
  %34 = load i32, ptr %29, align 8, !tbaa !17
  %35 = load ptr, ptr %0, align 8, !tbaa !7
  %36 = getelementptr inbounds i32, ptr %35, i64 %indvars.iv.i
  store i32 %34, ptr %36, align 4, !tbaa !25
  %indvars.iv.next.i = add nsw i64 %indvars.iv.i, 1
  %37 = icmp slt i64 %indvars.iv.next.i, %31
  br i1 %37, label %32, label %.critedge.thread.i, !llvm.loop !37

.critedge.thread.i:                               ; preds = %32
  store i32 %15, ptr %11, align 8, !tbaa !19
  br label %38

38:                                               ; preds = %.critedge.thread.i, %10
  %39 = lshr i32 %1, 4
  %40 = tail call fastcc noundef i32 @_ZN6icu_7712_GLOBAL__N_120MutableCodePointTrie12getDataBlockEi(ptr noundef nonnull align 8 dereferenceable(69696) %0, i32 noundef %39)
  %41 = icmp slt i32 %40, 0
  br i1 %41, label %_ZN6icu_7712_GLOBAL__N_120MutableCodePointTrie15ensureHighStartEi.exit, label %42

_ZN6icu_7712_GLOBAL__N_120MutableCodePointTrie15ensureHighStartEi.exit: ; preds = %21, %38
  store i32 7, ptr %3, align 4, !tbaa !3
  br label %49

42:                                               ; preds = %38
  %43 = getelementptr inbounds nuw i8, ptr %0, i64 16
  %44 = load ptr, ptr %43, align 8, !tbaa !22
  %45 = and i32 %1, 15
  %46 = add nuw nsw i32 %40, %45
  %47 = zext nneg i32 %46 to i64
  %48 = getelementptr inbounds nuw i32, ptr %44, i64 %47
  store i32 %2, ptr %48, align 4, !tbaa !25
  br label %49

49:                                               ; preds = %_ZN6icu_7712_GLOBAL__N_120MutableCodePointTrie15ensureHighStartEi.exit, %42, %4, %9
  ret void
}